---
triple:          'arm64-apple-darwin'
binary-path:     '/Users/himanshuyadav/Desktop/30DC/output/ZOHO'
relocations:
  - { offsetInCU: 0x4794, offset: 0x4794, size: 0x8, addend: 0x0, symName: __ZNSt3__124__put_character_sequenceB8ue170006IcNS_11char_traitsIcEEEERNS_13basic_ostreamIT_T0_EES7_PKS4_m, symObjAddr: 0x1D60, symBinAddr: 0x100003EE8, symSize: 0x1F4 }
  - { offsetInCU: 0x6BA6, offset: 0x6BA6, size: 0x8, addend: 0x0, symName: __ZNSt3__1lsB8ue170006INS_11char_traitsIcEEEERNS_13basic_ostreamIcT_EES6_PKc, symObjAddr: 0x2B4, symBinAddr: 0x10000243C, symSize: 0x48 }
  - { offsetInCU: 0x6BEC, offset: 0x6BEC, size: 0x8, addend: 0x0, symName: __ZNSt3__14endlB8ue170006IcNS_11char_traitsIcEEEERNS_13basic_ostreamIT_T0_EES7_, symObjAddr: 0x328, symBinAddr: 0x1000024B0, symSize: 0x58 }
  - { offsetInCU: 0x6C2C, offset: 0x6C2C, size: 0x8, addend: 0x0, symName: __ZNSt3__1rsB8ue170006IcNS_11char_traitsIcEENS_9allocatorIcEEEERNS_13basic_istreamIT_T0_EES9_RNS_12basic_stringIS6_S7_T1_EE, symObjAddr: 0xBD0, symBinAddr: 0x100002D58, symSize: 0x314 }
  - { offsetInCU: 0x6CF9, offset: 0x6CF9, size: 0x8, addend: 0x0, symName: __ZNSt3__1rsB8ue170006IcNS_11char_traitsIcEEEERNS_13basic_istreamIT_T0_EES7_RS4_, symObjAddr: 0xEE4, symBinAddr: 0x10000306C, symSize: 0x18C }
  - { offsetInCU: 0x6D7B, offset: 0x6D7B, size: 0x8, addend: 0x0, symName: __ZNSt3__1eqB8ue170006INS_9allocatorIcEEEEbRKNS_12basic_stringIcNS_11char_traitsIcEET_EES9_, symObjAddr: 0x1188, symBinAddr: 0x100003310, symSize: 0x148 }
  - { offsetInCU: 0x6DEE, offset: 0x6DEE, size: 0x8, addend: 0x0, symName: __ZNSt3__1eqB8ue170006IcNS_11char_traitsIcEENS_9allocatorIcEEEEbRKNS_12basic_stringIT_T0_T1_EEPKS6_, symObjAddr: 0x12FC, symBinAddr: 0x100003484, symSize: 0xC0 }
  - { offsetInCU: 0x6E71, offset: 0x6E71, size: 0x8, addend: 0x0, symName: __ZNSt3__1lsB8ue170006IcNS_11char_traitsIcEENS_9allocatorIcEEEERNS_13basic_ostreamIT_T0_EES9_RKNS_12basic_stringIS6_S7_T1_EE, symObjAddr: 0x1500, symBinAddr: 0x100003688, symSize: 0x4C }
  - { offsetInCU: 0x6EC9, offset: 0x6EC9, size: 0x8, addend: 0x0, symName: __ZNSt3__1lsB8ue170006INS_11char_traitsIcEEEERNS_13basic_ostreamIcT_EES6_c, symObjAddr: 0x1578, symBinAddr: 0x100003700, symSize: 0x34 }
  - { offsetInCU: 0x6F0F, offset: 0x6F0F, size: 0x8, addend: 0x0, symName: __ZNSt3__112__to_addressB8ue170006I9PassengerEEPT_S3_, symObjAddr: 0x1B48, symBinAddr: 0x100003CD0, symSize: 0x14 }
  - { offsetInCU: 0x6F44, offset: 0x6F44, size: 0x8, addend: 0x0, symName: __ZNSt3__130__libcpp_is_constant_evaluatedB8ue170006Ev, symObjAddr: 0x1C40, symBinAddr: 0x100003DC8, symSize: 0xC }
  - { offsetInCU: 0x6F61, offset: 0x6F61, size: 0x8, addend: 0x0, symName: __ZNSt3__119__libcpp_deallocateB8ue170006EPvmm, symObjAddr: 0x1C4C, symBinAddr: 0x100003DD4, symSize: 0x30 }
  - { offsetInCU: 0x6FA9, offset: 0x6FA9, size: 0x8, addend: 0x0, symName: __ZNSt3__127__do_deallocate_handle_sizeB8ue170006IJEEEvPvmDpT_, symObjAddr: 0x1C7C, symBinAddr: 0x100003E04, symSize: 0x28 }
  - { offsetInCU: 0x6FE7, offset: 0x6FE7, size: 0x8, addend: 0x0, symName: __ZNSt3__124__libcpp_operator_deleteB8ue170006IJPvEEEvDpT_, symObjAddr: 0x1CA4, symBinAddr: 0x100003E2C, symSize: 0x24 }
  - { offsetInCU: 0x701C, offset: 0x701C, size: 0x8, addend: 0x0, symName: __ZNSt3__116__pad_and_outputB8ue170006IcNS_11char_traitsIcEEEENS_19ostreambuf_iteratorIT_T0_EES6_PKS4_S8_S8_RNS_8ios_baseES4_, symObjAddr: 0x1FB8, symBinAddr: 0x100004140, symSize: 0x248 }
  - { offsetInCU: 0x70EB, offset: 0x70EB, size: 0x8, addend: 0x0, symName: __ZNSt3__112__to_addressB8ue170006IKcEEPT_S3_, symObjAddr: 0x2528, symBinAddr: 0x1000046B0, symSize: 0x14 }
  - { offsetInCU: 0x7153, offset: 0x7153, size: 0x8, addend: 0x0, symName: __ZNSt3__19use_facetB8ue170006INS_5ctypeIcEEEERKT_RKNS_6localeE, symObjAddr: 0x2800, symBinAddr: 0x100004988, symSize: 0x2C }
  - { offsetInCU: 0x7531, offset: 0x7531, size: 0x8, addend: 0x0, symName: __ZNSt3__118__constexpr_strlenB8ue170006EPKc, symObjAddr: 0x2898, symBinAddr: 0x100004A20, symSize: 0x24 }
  - { offsetInCU: 0x755D, offset: 0x755D, size: 0x8, addend: 0x0, symName: __ZNSt3__117__libcpp_allocateB8ue170006Emm, symObjAddr: 0x2CB8, symBinAddr: 0x100004E40, symSize: 0x28 }
  - { offsetInCU: 0x759A, offset: 0x759A, size: 0x8, addend: 0x0, symName: __ZNSt3__121__libcpp_operator_newB8ue170006IJmEEEPvDpT_, symObjAddr: 0x2CF4, symBinAddr: 0x100004E7C, symSize: 0x24 }
  - { offsetInCU: 0x7F94, offset: 0x7F94, size: 0x8, addend: 0x0, symName: __ZNSt3__13maxB8ue170006ImEERKT_S3_S3_, symObjAddr: 0x390C, symBinAddr: 0x100005A94, symSize: 0x2C }
  - { offsetInCU: 0x7FD7, offset: 0x7FD7, size: 0x8, addend: 0x0, symName: __ZNSt3__13minB8ue170006ImEERKT_S3_S3_, symObjAddr: 0x3938, symBinAddr: 0x100005AC0, symSize: 0x2C }
  - { offsetInCU: 0x801A, offset: 0x801A, size: 0x8, addend: 0x0, symName: __ZNSt3__13minB8ue170006ImNS_6__lessIvvEEEERKT_S5_S5_T0_, symObjAddr: 0x39B0, symBinAddr: 0x100005B38, symSize: 0x54 }
  - { offsetInCU: 0x80B9, offset: 0x80B9, size: 0x8, addend: 0x0, symName: __ZNSt3__120__throw_length_errorB8ue170006EPKc, symObjAddr: 0x3A90, symBinAddr: 0x100005C18, symSize: 0x64 }
  - { offsetInCU: 0x80E3, offset: 0x80E3, size: 0x8, addend: 0x0, symName: __ZNSt3__13maxB8ue170006ImNS_6__lessIvvEEEERKT_S5_S5_T0_, symObjAddr: 0x3B74, symBinAddr: 0x100005CFC, symSize: 0x54 }
  - { offsetInCU: 0x813D, offset: 0x813D, size: 0x8, addend: 0x0, symName: __ZNSt3__119__allocate_at_leastB8ue170006INS_9allocatorI9PassengerEEEENS_19__allocation_resultINS_16allocator_traitsIT_E7pointerEEERS6_m, symObjAddr: 0x3CE4, symBinAddr: 0x100005E6C, symSize: 0x40 }
  - { offsetInCU: 0x8180, offset: 0x8180, size: 0x8, addend: 0x0, symName: __ZNSt3__142__uninitialized_allocator_move_if_noexceptB8ue170006INS_9allocatorI9PassengerEENS_16reverse_iteratorIPS2_EES6_S6_EET2_RT_T0_T1_S7_, symObjAddr: 0x3ECC, symBinAddr: 0x100006054, symSize: 0x134 }
  - { offsetInCU: 0x8220, offset: 0x8220, size: 0x8, addend: 0x0, symName: __ZNSt3__14swapB8ue170006IP9PassengerEEvRT_S4_, symObjAddr: 0x404C, symBinAddr: 0x1000061D4, symSize: 0x3C }
  - { offsetInCU: 0x8271, offset: 0x8271, size: 0x8, addend: 0x0, symName: __ZNSt3__122__make_exception_guardB8ue170006INS_29_AllocatorDestroyRangeReverseINS_9allocatorI9PassengerEENS_16reverse_iteratorIPS3_EEEEEENS_28__exception_guard_exceptionsIT_EESA_, symObjAddr: 0x4150, symBinAddr: 0x1000062D8, symSize: 0x4C }
  - { offsetInCU: 0x82A7, offset: 0x82A7, size: 0x8, addend: 0x0, symName: __ZNSt3__1neB8ue170006IP9PassengerS2_EEbRKNS_16reverse_iteratorIT_EERKNS3_IT0_EE, symObjAddr: 0x41E0, symBinAddr: 0x100006368, symSize: 0x48 }
  - { offsetInCU: 0x82F3, offset: 0x82F3, size: 0x8, addend: 0x0, symName: __ZNSt3__112__to_addressB8ue170006INS_16reverse_iteratorIP9PassengerEEvEEu7__decayIDTclsr19__to_address_helperIT_EE6__callclsr3stdE7declvalIRKS5_EEEEES7_, symObjAddr: 0x4228, symBinAddr: 0x1000063B0, symSize: 0x24 }
  - { offsetInCU: 0x8352, offset: 0x8352, size: 0x8, addend: 0x0, symName: __ZNSt3__119__allocator_destroyB8ue170006INS_9allocatorI9PassengerEENS_16reverse_iteratorINS4_IPS2_EEEES7_EEvRT_T0_T1_, symObjAddr: 0x44E4, symBinAddr: 0x10000666C, symSize: 0x70 }
  - { offsetInCU: 0x83B7, offset: 0x83B7, size: 0x8, addend: 0x0, symName: __ZNSt3__1neB8ue170006INS_16reverse_iteratorIP9PassengerEES4_EEbRKNS1_IT_EERKNS1_IT0_EE, symObjAddr: 0x4590, symBinAddr: 0x100006718, symSize: 0x60 }
  - { offsetInCU: 0x8403, offset: 0x8403, size: 0x8, addend: 0x0, symName: __ZNSt3__112__to_addressB8ue170006INS_16reverse_iteratorINS1_IP9PassengerEEEEvEEu7__decayIDTclsr19__to_address_helperIT_EE6__callclsr3stdE7declvalIRKS6_EEEEES8_, symObjAddr: 0x45F0, symBinAddr: 0x100006778, symSize: 0x24 }
  - { offsetInCU: 0x8462, offset: 0x8462, size: 0x8, addend: 0x0, symName: __ZNSt3__1miB8ue170006IPK9PassengerS3_EENS_11__wrap_iterIT_E15difference_typeERKS6_RKNS4_IT0_EE, symObjAddr: 0x4B3C, symBinAddr: 0x100006CC4, symSize: 0x48 }
  - { offsetInCU: 0x84AE, offset: 0x84AE, size: 0x8, addend: 0x0, symName: __ZNSt3__14moveB8ue170006IP9PassengerS2_EET0_T_S4_S3_, symObjAddr: 0x4BFC, symBinAddr: 0x100006D84, symSize: 0x40 }
  - { offsetInCU: 0x8508, offset: 0x8508, size: 0x8, addend: 0x0, symName: __ZNSt3__16__moveB8ue170006INS_17_ClassicAlgPolicyEP9PassengerS3_S3_EENS_4pairIT0_T2_EES5_T1_S6_, symObjAddr: 0x4DD8, symBinAddr: 0x100006F60, symSize: 0x44 }
  - { offsetInCU: 0x8574, offset: 0x8574, size: 0x8, addend: 0x0, symName: __ZNSt3__123__dispatch_copy_or_moveB8ue170006INS_17_ClassicAlgPolicyENS_11__move_loopIS1_EENS_14__move_trivialEP9PassengerS6_S6_EENS_4pairIT2_T4_EES8_T3_S9_, symObjAddr: 0x4E1C, symBinAddr: 0x100006FA4, symSize: 0x44 }
  - { offsetInCU: 0x85F2, offset: 0x85F2, size: 0x8, addend: 0x0, symName: __ZNSt3__121__unwrap_and_dispatchB8ue170006INS_10__overloadINS_11__move_loopINS_17_ClassicAlgPolicyEEENS_14__move_trivialEEEP9PassengerS8_S8_Li0EEENS_4pairIT0_T2_EESA_T1_SB_, symObjAddr: 0x4E60, symBinAddr: 0x100006FE8, symSize: 0xB4 }
  - { offsetInCU: 0x8680, offset: 0x8680, size: 0x8, addend: 0x0, symName: __ZNSt3__114__unwrap_rangeB8ue170006IP9PassengerS2_EENS_4pairIT0_S4_EET_S6_, symObjAddr: 0x4F14, symBinAddr: 0x10000709C, symSize: 0x60 }
  - { offsetInCU: 0x87D4, offset: 0x87D4, size: 0x8, addend: 0x0, symName: __ZNSt3__113__unwrap_iterB8ue170006IP9PassengerNS_18__unwrap_iter_implIS2_Lb1EEELi0EEEDTclsrT0_8__unwrapclsr3stdE7declvalIT_EEEES6_, symObjAddr: 0x5004, symBinAddr: 0x10000718C, symSize: 0x24 }
  - { offsetInCU: 0x8818, offset: 0x8818, size: 0x8, addend: 0x0, symName: __ZNSt3__19make_pairB8ue170006IP9PassengerS2_EENS_4pairINS_18__unwrap_ref_decayIT_E4typeENS4_IT0_E4typeEEEOS5_OS8_, symObjAddr: 0x5028, symBinAddr: 0x1000071B0, symSize: 0x38 }
  - { offsetInCU: 0x8867, offset: 0x8867, size: 0x8, addend: 0x0, symName: __ZNSt3__114__rewrap_rangeB8ue170006IP9PassengerS2_EET_S3_T0_, symObjAddr: 0x5060, symBinAddr: 0x1000071E8, symSize: 0x2C }
  - { offsetInCU: 0x88B3, offset: 0x88B3, size: 0x8, addend: 0x0, symName: __ZNSt3__113__rewrap_iterB8ue170006IP9PassengerS2_NS_18__unwrap_iter_implIS2_Lb1EEEEET_S5_T0_, symObjAddr: 0x508C, symBinAddr: 0x100007214, symSize: 0x50 }
  - { offsetInCU: 0x8BA3, offset: 0x8BA3, size: 0x8, addend: 0x0, symName: __ZSt28__throw_bad_array_new_lengthB8ue170006v, symObjAddr: 0x2C84, symBinAddr: 0x100004E0C, symSize: 0x34 }
  - { offsetInCU: 0x91C7, offset: 0x91C7, size: 0x8, addend: 0x0, symName: __ZNSt3__16vectorI9PassengerNS_9allocatorIS1_EEE26__swap_out_circular_bufferERNS_14__split_bufferIS1_RS3_EE, symObjAddr: 0x3740, symBinAddr: 0x1000058C8, symSize: 0x110 }
  - { offsetInCU: 0xB50A, offset: 0xB50A, size: 0x8, addend: 0x0, symName: _main, symObjAddr: 0x0, symBinAddr: 0x100002188, symSize: 0x274 }
  - { offsetInCU: 0xB56B, offset: 0xB56B, size: 0x8, addend: 0x0, symName: __ZNSt3__16vectorI9PassengerNS_9allocatorIS1_EEEC1B8ue170006Ev, symObjAddr: 0x288, symBinAddr: 0x100002410, symSize: 0x2C }
  - { offsetInCU: 0xB594, offset: 0xB594, size: 0x8, addend: 0x0, symName: __ZNSt3__113basic_ostreamIcNS_11char_traitsIcEEElsB8ue170006EPFRS3_S4_E, symObjAddr: 0x2FC, symBinAddr: 0x100002484, symSize: 0x2C }
  - { offsetInCU: 0xB5C7, offset: 0xB5C7, size: 0x8, addend: 0x0, symName: __Z11book_ticketRNSt3__16vectorI9PassengerNS_9allocatorIS1_EEEERiS6_S6_, symObjAddr: 0x380, symBinAddr: 0x100002508, symSize: 0x360 }
  - { offsetInCU: 0xB629, offset: 0xB629, size: 0x8, addend: 0x0, symName: __Z13cancel_ticketRNSt3__16vectorI9PassengerNS_9allocatorIS1_EEEERiS6_S6_, symObjAddr: 0x6E0, symBinAddr: 0x100002868, symSize: 0x28C }
  - { offsetInCU: 0xB69F, offset: 0xB69F, size: 0x8, addend: 0x0, symName: __Z20print_booked_ticketsRKNSt3__16vectorI9PassengerNS_9allocatorIS1_EEEE, symObjAddr: 0x96C, symBinAddr: 0x100002AF4, symSize: 0x138 }
  - { offsetInCU: 0xB702, offset: 0xB702, size: 0x8, addend: 0x0, symName: __Z23print_available_ticketsiii, symObjAddr: 0xAA4, symBinAddr: 0x100002C2C, symSize: 0xC8 }
  - { offsetInCU: 0xB747, offset: 0xB747, size: 0x8, addend: 0x0, symName: __ZNSt3__16vectorI9PassengerNS_9allocatorIS1_EEED1B8ue170006Ev, symObjAddr: 0xB6C, symBinAddr: 0x100002CF4, symSize: 0x2C }
  - { offsetInCU: 0xB775, offset: 0xB775, size: 0x8, addend: 0x0, symName: __ZN9PassengerC1Ev, symObjAddr: 0xBA4, symBinAddr: 0x100002D2C, symSize: 0x2C }
  - { offsetInCU: 0xB7A0, offset: 0xB7A0, size: 0x8, addend: 0x0, symName: __ZNSt3__112basic_stringIcNS_11char_traitsIcEENS_9allocatorIcEEEaSB8ue170006EPKc, symObjAddr: 0x1070, symBinAddr: 0x1000031F8, symSize: 0x2C }
  - { offsetInCU: 0xB7D3, offset: 0xB7D3, size: 0x8, addend: 0x0, symName: __ZNSt3__16vectorI9PassengerNS_9allocatorIS1_EEE9push_backB8ue170006ERKS1_, symObjAddr: 0x109C, symBinAddr: 0x100003224, symSize: 0x6C }
  - { offsetInCU: 0xB809, offset: 0xB809, size: 0x8, addend: 0x0, symName: __ZN9PassengerD1Ev, symObjAddr: 0x1108, symBinAddr: 0x100003290, symSize: 0x2C }
  - { offsetInCU: 0xB834, offset: 0xB834, size: 0x8, addend: 0x0, symName: __ZNSt3__112basic_stringIcNS_11char_traitsIcEENS_9allocatorIcEEEC1B8ue170006Ev, symObjAddr: 0x1134, symBinAddr: 0x1000032BC, symSize: 0x2C }
  - { offsetInCU: 0xB85D, offset: 0xB85D, size: 0x8, addend: 0x0, symName: __ZNKSt3__16vectorI9PassengerNS_9allocatorIS1_EEE4sizeB8ue170006Ev, symObjAddr: 0x1160, symBinAddr: 0x1000032E8, symSize: 0x28 }
  - { offsetInCU: 0xB882, offset: 0xB882, size: 0x8, addend: 0x0, symName: __ZNSt3__16vectorI9PassengerNS_9allocatorIS1_EEEixB8ue170006Em, symObjAddr: 0x12D0, symBinAddr: 0x100003458, symSize: 0x2C }
  - { offsetInCU: 0xB8B7, offset: 0xB8B7, size: 0x8, addend: 0x0, symName: __ZNSt3__16vectorI9PassengerNS_9allocatorIS1_EEE5eraseB8ue170006ENS_11__wrap_iterIPKS1_EE, symObjAddr: 0x13BC, symBinAddr: 0x100003544, symSize: 0x9C }
  - { offsetInCU: 0xB90A, offset: 0xB90A, size: 0x8, addend: 0x0, symName: __ZNSt3__16vectorI9PassengerNS_9allocatorIS1_EEE5beginB8ue170006Ev, symObjAddr: 0x1458, symBinAddr: 0x1000035E0, symSize: 0x30 }
  - { offsetInCU: 0xB931, offset: 0xB931, size: 0x8, addend: 0x0, symName: __ZNKSt3__111__wrap_iterIP9PassengerEplB8ue170006El, symObjAddr: 0x1488, symBinAddr: 0x100003610, symSize: 0x3C }
  - { offsetInCU: 0xB97C, offset: 0xB97C, size: 0x8, addend: 0x0, symName: __ZNSt3__111__wrap_iterIPK9PassengerEC1B8ue170006IPS1_EERKNS0_IT_EEPNS_9enable_ifIXsr14is_convertibleIS7_S3_EE5valueEvE4typeE, symObjAddr: 0x14C4, symBinAddr: 0x10000364C, symSize: 0x3C }
  - { offsetInCU: 0xB9C7, offset: 0xB9C7, size: 0x8, addend: 0x0, symName: __ZNKSt3__16vectorI9PassengerNS_9allocatorIS1_EEEixB8ue170006Em, symObjAddr: 0x154C, symBinAddr: 0x1000036D4, symSize: 0x2C }
  - { offsetInCU: 0xB9FD, offset: 0xB9FD, size: 0x8, addend: 0x0, symName: __ZN9PassengerC2Ev, symObjAddr: 0x15AC, symBinAddr: 0x100003734, symSize: 0x68 }
  - { offsetInCU: 0xBA28, offset: 0xBA28, size: 0x8, addend: 0x0, symName: __ZN9PassengerD2Ev, symObjAddr: 0x1614, symBinAddr: 0x10000379C, symSize: 0x68 }
  - { offsetInCU: 0xBA53, offset: 0xBA53, size: 0x8, addend: 0x0, symName: __ZNSt3__16vectorI9PassengerNS_9allocatorIS1_EEEC2B8ue170006Ev, symObjAddr: 0x167C, symBinAddr: 0x100003804, symSize: 0x44 }
  - { offsetInCU: 0xBA86, offset: 0xBA86, size: 0x8, addend: 0x0, symName: __ZNSt3__117__compressed_pairIP9PassengerNS_9allocatorIS1_EEEC1B8ue170006IDnNS_18__default_init_tagEEEOT_OT0_, symObjAddr: 0x16C0, symBinAddr: 0x100003848, symSize: 0x3C }
  - { offsetInCU: 0xBADD, offset: 0xBADD, size: 0x8, addend: 0x0, symName: __ZNSt3__117__compressed_pairIP9PassengerNS_9allocatorIS1_EEEC2B8ue170006IDnNS_18__default_init_tagEEEOT_OT0_, symObjAddr: 0x16FC, symBinAddr: 0x100003884, symSize: 0x40 }
  - { offsetInCU: 0xBB34, offset: 0xBB34, size: 0x8, addend: 0x0, symName: __ZNSt3__122__compressed_pair_elemIP9PassengerLi0ELb0EEC2B8ue170006IDnvEEOT_, symObjAddr: 0x173C, symBinAddr: 0x1000038C4, symSize: 0x1C }
  - { offsetInCU: 0xBB75, offset: 0xBB75, size: 0x8, addend: 0x0, symName: __ZNSt3__122__compressed_pair_elemINS_9allocatorI9PassengerEELi1ELb1EEC2B8ue170006ENS_18__default_init_tagE, symObjAddr: 0x1758, symBinAddr: 0x1000038E0, symSize: 0x2C }
  - { offsetInCU: 0xBBA9, offset: 0xBBA9, size: 0x8, addend: 0x0, symName: __ZNSt3__19allocatorI9PassengerEC2B8ue170006Ev, symObjAddr: 0x1784, symBinAddr: 0x10000390C, symSize: 0x2C }
  - { offsetInCU: 0xBBD2, offset: 0xBBD2, size: 0x8, addend: 0x0, symName: __ZNSt3__116__non_trivial_ifILb1ENS_9allocatorI9PassengerEEEC2B8ue170006Ev, symObjAddr: 0x17B0, symBinAddr: 0x100003938, symSize: 0x14 }
  - { offsetInCU: 0xBBFB, offset: 0xBBFB, size: 0x8, addend: 0x0, symName: __ZNSt3__16vectorI9PassengerNS_9allocatorIS1_EEED2B8ue170006Ev, symObjAddr: 0x17C4, symBinAddr: 0x10000394C, symSize: 0x3C }
  - { offsetInCU: 0xBC24, offset: 0xBC24, size: 0x8, addend: 0x0, symName: __ZNSt3__16vectorI9PassengerNS_9allocatorIS1_EEE16__destroy_vectorC1B8ue170006ERS4_, symObjAddr: 0x1800, symBinAddr: 0x100003988, symSize: 0x34 }
  - { offsetInCU: 0xBC5C, offset: 0xBC5C, size: 0x8, addend: 0x0, symName: __ZNSt3__16vectorI9PassengerNS_9allocatorIS1_EEE16__destroy_vectorclB8ue170006Ev, symObjAddr: 0x1834, symBinAddr: 0x1000039BC, symSize: 0x90 }
  - { offsetInCU: 0xBC81, offset: 0xBC81, size: 0x8, addend: 0x0, symName: __ZNSt3__16vectorI9PassengerNS_9allocatorIS1_EEE16__destroy_vectorC2B8ue170006ERS4_, symObjAddr: 0x18C4, symBinAddr: 0x100003A4C, symSize: 0x20 }
  - { offsetInCU: 0xBCB9, offset: 0xBCB9, size: 0x8, addend: 0x0, symName: __ZNSt3__16vectorI9PassengerNS_9allocatorIS1_EEE7__clearB8ue170006Ev, symObjAddr: 0x18E4, symBinAddr: 0x100003A6C, symSize: 0x28 }
  - { offsetInCU: 0xBCDE, offset: 0xBCDE, size: 0x8, addend: 0x0, symName: __ZNKSt3__16vectorI9PassengerNS_9allocatorIS1_EEE17__annotate_deleteB8ue170006Ev, symObjAddr: 0x190C, symBinAddr: 0x100003A94, symSize: 0xD4 }
  - { offsetInCU: 0xBD03, offset: 0xBD03, size: 0x8, addend: 0x0, symName: __ZNSt3__116allocator_traitsINS_9allocatorI9PassengerEEE10deallocateB8ue170006ERS3_PS2_m, symObjAddr: 0x19E0, symBinAddr: 0x100003B68, symSize: 0x34 }
  - { offsetInCU: 0xBD45, offset: 0xBD45, size: 0x8, addend: 0x0, symName: __ZNSt3__16vectorI9PassengerNS_9allocatorIS1_EEE7__allocB8ue170006Ev, symObjAddr: 0x1A14, symBinAddr: 0x100003B9C, symSize: 0x28 }
  - { offsetInCU: 0xBD6A, offset: 0xBD6A, size: 0x8, addend: 0x0, symName: __ZNKSt3__16vectorI9PassengerNS_9allocatorIS1_EEE8capacityB8ue170006Ev, symObjAddr: 0x1A3C, symBinAddr: 0x100003BC4, symSize: 0x40 }
  - { offsetInCU: 0xBD8F, offset: 0xBD8F, size: 0x8, addend: 0x0, symName: __ZNSt3__16vectorI9PassengerNS_9allocatorIS1_EEE22__base_destruct_at_endB8ue170006EPS1_, symObjAddr: 0x1A7C, symBinAddr: 0x100003C04, symSize: 0xA0 }
  - { offsetInCU: 0xBDD2, offset: 0xBDD2, size: 0x8, addend: 0x0, symName: __ZNSt3__116allocator_traitsINS_9allocatorI9PassengerEEE7destroyB8ue170006IS2_vEEvRS3_PT_, symObjAddr: 0x1B1C, symBinAddr: 0x100003CA4, symSize: 0x2C }
  - { offsetInCU: 0xBE0F, offset: 0xBE0F, size: 0x8, addend: 0x0, symName: __ZNSt3__19allocatorI9PassengerE7destroyB8ue170006EPS1_, symObjAddr: 0x1B5C, symBinAddr: 0x100003CE4, symSize: 0x28 }
  - { offsetInCU: 0xBE42, offset: 0xBE42, size: 0x8, addend: 0x0, symName: __ZNKSt3__16vectorI9PassengerNS_9allocatorIS1_EEE31__annotate_contiguous_containerB8ue170006EPKvS6_S6_S6_, symObjAddr: 0x1B84, symBinAddr: 0x100003D0C, symSize: 0x20 }
  - { offsetInCU: 0xBE97, offset: 0xBE97, size: 0x8, addend: 0x0, symName: __ZNKSt3__16vectorI9PassengerNS_9allocatorIS1_EEE4dataB8ue170006Ev, symObjAddr: 0x1BA4, symBinAddr: 0x100003D2C, symSize: 0x28 }
  - { offsetInCU: 0xBEBC, offset: 0xBEBC, size: 0x8, addend: 0x0, symName: __ZNSt3__19allocatorI9PassengerE10deallocateB8ue170006EPS1_m, symObjAddr: 0x1BCC, symBinAddr: 0x100003D54, symSize: 0x74 }
  - { offsetInCU: 0xBEFD, offset: 0xBEFD, size: 0x8, addend: 0x0, symName: __ZNSt3__117__compressed_pairIP9PassengerNS_9allocatorIS1_EEE6secondB8ue170006Ev, symObjAddr: 0x1CC8, symBinAddr: 0x100003E50, symSize: 0x24 }
  - { offsetInCU: 0xBF22, offset: 0xBF22, size: 0x8, addend: 0x0, symName: __ZNSt3__122__compressed_pair_elemINS_9allocatorI9PassengerEELi1ELb1EE5__getB8ue170006Ev, symObjAddr: 0x1CEC, symBinAddr: 0x100003E74, symSize: 0x14 }
  - { offsetInCU: 0xBF47, offset: 0xBF47, size: 0x8, addend: 0x0, symName: __ZNKSt3__16vectorI9PassengerNS_9allocatorIS1_EEE9__end_capB8ue170006Ev, symObjAddr: 0x1D00, symBinAddr: 0x100003E88, symSize: 0x28 }
  - { offsetInCU: 0xBF6C, offset: 0xBF6C, size: 0x8, addend: 0x0, symName: __ZNKSt3__117__compressed_pairIP9PassengerNS_9allocatorIS1_EEE5firstB8ue170006Ev, symObjAddr: 0x1D28, symBinAddr: 0x100003EB0, symSize: 0x24 }
  - { offsetInCU: 0xBF91, offset: 0xBF91, size: 0x8, addend: 0x0, symName: __ZNKSt3__122__compressed_pair_elemIP9PassengerLi0ELb0EE5__getB8ue170006Ev, symObjAddr: 0x1D4C, symBinAddr: 0x100003ED4, symSize: 0x14 }
  - { offsetInCU: 0xBFB6, offset: 0xBFB6, size: 0x8, addend: 0x0, symName: __ZNSt3__111char_traitsIcE6lengthB8ue170006EPKc, symObjAddr: 0x1F54, symBinAddr: 0x1000040DC, symSize: 0x48 }
  - { offsetInCU: 0xBFF7, offset: 0xBFF7, size: 0x8, addend: 0x0, symName: __ZNKSt3__113basic_ostreamIcNS_11char_traitsIcEEE6sentrycvbB8ue170006Ev, symObjAddr: 0x1F9C, symBinAddr: 0x100004124, symSize: 0x1C }
  - { offsetInCU: 0xC01C, offset: 0xC01C, size: 0x8, addend: 0x0, symName: __ZNSt3__119ostreambuf_iteratorIcNS_11char_traitsIcEEEC1B8ue170006ERNS_13basic_ostreamIcS2_EE, symObjAddr: 0x2200, symBinAddr: 0x100004388, symSize: 0x34 }
  - { offsetInCU: 0xC053, offset: 0xC053, size: 0x8, addend: 0x0, symName: __ZNKSt3__18ios_base5flagsB8ue170006Ev, symObjAddr: 0x2234, symBinAddr: 0x1000043BC, symSize: 0x18 }
  - { offsetInCU: 0xC079, offset: 0xC079, size: 0x8, addend: 0x0, symName: __ZNKSt3__19basic_iosIcNS_11char_traitsIcEEE4fillB8ue170006Ev, symObjAddr: 0x224C, symBinAddr: 0x1000043D4, symSize: 0x64 }
  - { offsetInCU: 0xC0A0, offset: 0xC0A0, size: 0x8, addend: 0x0, symName: __ZNKSt3__119ostreambuf_iteratorIcNS_11char_traitsIcEEE6failedB8ue170006Ev, symObjAddr: 0x22B0, symBinAddr: 0x100004438, symSize: 0x24 }
  - { offsetInCU: 0xC0C5, offset: 0xC0C5, size: 0x8, addend: 0x0, symName: __ZNSt3__19basic_iosIcNS_11char_traitsIcEEE8setstateB8ue170006Ej, symObjAddr: 0x22D4, symBinAddr: 0x10000445C, symSize: 0x2C }
  - { offsetInCU: 0xC0F9, offset: 0xC0F9, size: 0x8, addend: 0x0, symName: __ZNKSt3__18ios_base5widthB8ue170006Ev, symObjAddr: 0x2300, symBinAddr: 0x100004488, symSize: 0x18 }
  - { offsetInCU: 0xC120, offset: 0xC120, size: 0x8, addend: 0x0, symName: __ZNSt3__115basic_streambufIcNS_11char_traitsIcEEE5sputnB8ue170006EPKcl, symObjAddr: 0x2318, symBinAddr: 0x1000044A0, symSize: 0x3C }
  - { offsetInCU: 0xC161, offset: 0xC161, size: 0x8, addend: 0x0, symName: __ZNSt3__112basic_stringIcNS_11char_traitsIcEENS_9allocatorIcEEEC1B8ue170006Emc, symObjAddr: 0x2354, symBinAddr: 0x1000044DC, symSize: 0x3C }
  - { offsetInCU: 0xC1A8, offset: 0xC1A8, size: 0x8, addend: 0x0, symName: __ZNKSt3__112basic_stringIcNS_11char_traitsIcEENS_9allocatorIcEEE4dataB8ue170006Ev, symObjAddr: 0x2390, symBinAddr: 0x100004518, symSize: 0x28 }
  - { offsetInCU: 0xC1CD, offset: 0xC1CD, size: 0x8, addend: 0x0, symName: __ZNSt3__18ios_base5widthB8ue170006El, symObjAddr: 0x23B8, symBinAddr: 0x100004540, symSize: 0x2C }
  - { offsetInCU: 0xC212, offset: 0xC212, size: 0x8, addend: 0x0, symName: __ZNSt3__112basic_stringIcNS_11char_traitsIcEENS_9allocatorIcEEEC2B8ue170006Emc, symObjAddr: 0x23E4, symBinAddr: 0x10000456C, symSize: 0x4C }
  - { offsetInCU: 0xC259, offset: 0xC259, size: 0x8, addend: 0x0, symName: __ZNSt3__117__compressed_pairINS_12basic_stringIcNS_11char_traitsIcEENS_9allocatorIcEEE5__repES5_EC1B8ue170006INS_18__default_init_tagESA_EEOT_OT0_, symObjAddr: 0x2430, symBinAddr: 0x1000045B8, symSize: 0x3C }
  - { offsetInCU: 0xC2B0, offset: 0xC2B0, size: 0x8, addend: 0x0, symName: __ZNSt3__117__compressed_pairINS_12basic_stringIcNS_11char_traitsIcEENS_9allocatorIcEEE5__repES5_EC2B8ue170006INS_18__default_init_tagESA_EEOT_OT0_, symObjAddr: 0x246C, symBinAddr: 0x1000045F4, symSize: 0x3C }
  - { offsetInCU: 0xC307, offset: 0xC307, size: 0x8, addend: 0x0, symName: __ZNSt3__122__compressed_pair_elemINS_12basic_stringIcNS_11char_traitsIcEENS_9allocatorIcEEE5__repELi0ELb0EEC2B8ue170006ENS_18__default_init_tagE, symObjAddr: 0x24A8, symBinAddr: 0x100004630, symSize: 0x14 }
  - { offsetInCU: 0xC33B, offset: 0xC33B, size: 0x8, addend: 0x0, symName: __ZNSt3__122__compressed_pair_elemINS_9allocatorIcEELi1ELb1EEC2B8ue170006ENS_18__default_init_tagE, symObjAddr: 0x24BC, symBinAddr: 0x100004644, symSize: 0x2C }
  - { offsetInCU: 0xC36F, offset: 0xC36F, size: 0x8, addend: 0x0, symName: __ZNSt3__19allocatorIcEC2B8ue170006Ev, symObjAddr: 0x24E8, symBinAddr: 0x100004670, symSize: 0x2C }
  - { offsetInCU: 0xC398, offset: 0xC398, size: 0x8, addend: 0x0, symName: __ZNSt3__116__non_trivial_ifILb1ENS_9allocatorIcEEEC2B8ue170006Ev, symObjAddr: 0x2514, symBinAddr: 0x10000469C, symSize: 0x14 }
  - { offsetInCU: 0xC3C1, offset: 0xC3C1, size: 0x8, addend: 0x0, symName: __ZNKSt3__112basic_stringIcNS_11char_traitsIcEENS_9allocatorIcEEE13__get_pointerB8ue170006Ev, symObjAddr: 0x253C, symBinAddr: 0x1000046C4, symSize: 0x54 }
  - { offsetInCU: 0xC3E6, offset: 0xC3E6, size: 0x8, addend: 0x0, symName: __ZNKSt3__112basic_stringIcNS_11char_traitsIcEENS_9allocatorIcEEE9__is_longB8ue170006Ev, symObjAddr: 0x2590, symBinAddr: 0x100004718, symSize: 0x74 }
  - { offsetInCU: 0xC40B, offset: 0xC40B, size: 0x8, addend: 0x0, symName: __ZNKSt3__112basic_stringIcNS_11char_traitsIcEENS_9allocatorIcEEE18__get_long_pointerB8ue170006Ev, symObjAddr: 0x2604, symBinAddr: 0x10000478C, symSize: 0x28 }
  - { offsetInCU: 0xC430, offset: 0xC430, size: 0x8, addend: 0x0, symName: __ZNKSt3__112basic_stringIcNS_11char_traitsIcEENS_9allocatorIcEEE19__get_short_pointerB8ue170006Ev, symObjAddr: 0x262C, symBinAddr: 0x1000047B4, symSize: 0x28 }
  - { offsetInCU: 0xC455, offset: 0xC455, size: 0x8, addend: 0x0, symName: __ZNKSt3__117__compressed_pairINS_12basic_stringIcNS_11char_traitsIcEENS_9allocatorIcEEE5__repES5_E5firstB8ue170006Ev, symObjAddr: 0x2654, symBinAddr: 0x1000047DC, symSize: 0x24 }
  - { offsetInCU: 0xC47A, offset: 0xC47A, size: 0x8, addend: 0x0, symName: __ZNKSt3__122__compressed_pair_elemINS_12basic_stringIcNS_11char_traitsIcEENS_9allocatorIcEEE5__repELi0ELb0EE5__getB8ue170006Ev, symObjAddr: 0x2678, symBinAddr: 0x100004800, symSize: 0x14 }
  - { offsetInCU: 0xC49F, offset: 0xC49F, size: 0x8, addend: 0x0, symName: __ZNSt3__114pointer_traitsIPKcE10pointer_toB8ue170006ERS1_, symObjAddr: 0x268C, symBinAddr: 0x100004814, symSize: 0x14 }
  - { offsetInCU: 0xC4C2, offset: 0xC4C2, size: 0x8, addend: 0x0, symName: __ZNSt3__119ostreambuf_iteratorIcNS_11char_traitsIcEEEC2B8ue170006ERNS_13basic_ostreamIcS2_EE, symObjAddr: 0x26A0, symBinAddr: 0x100004828, symSize: 0x68 }
  - { offsetInCU: 0xC4F8, offset: 0xC4F8, size: 0x8, addend: 0x0, symName: __ZNKSt3__19basic_iosIcNS_11char_traitsIcEEE5rdbufB8ue170006Ev, symObjAddr: 0x2708, symBinAddr: 0x100004890, symSize: 0x24 }
  - { offsetInCU: 0xC51F, offset: 0xC51F, size: 0x8, addend: 0x0, symName: __ZNKSt3__18ios_base5rdbufB8ue170006Ev, symObjAddr: 0x272C, symBinAddr: 0x1000048B4, symSize: 0x18 }
  - { offsetInCU: 0xC544, offset: 0xC544, size: 0x8, addend: 0x0, symName: __ZNSt3__111char_traitsIcE11eq_int_typeB8ue170006Eii, symObjAddr: 0x2744, symBinAddr: 0x1000048CC, symSize: 0x28 }
  - { offsetInCU: 0xC577, offset: 0xC577, size: 0x8, addend: 0x0, symName: __ZNSt3__111char_traitsIcE3eofB8ue170006Ev, symObjAddr: 0x276C, symBinAddr: 0x1000048F4, symSize: 0x8 }
  - { offsetInCU: 0xC58A, offset: 0xC58A, size: 0x8, addend: 0x0, symName: __ZNKSt3__19basic_iosIcNS_11char_traitsIcEEE5widenB8ue170006Ec, symObjAddr: 0x2774, symBinAddr: 0x1000048FC, symSize: 0x8C }
  - { offsetInCU: 0xC5ED, offset: 0xC5ED, size: 0x8, addend: 0x0, symName: __ZNKSt3__15ctypeIcE5widenB8ue170006Ec, symObjAddr: 0x282C, symBinAddr: 0x1000049B4, symSize: 0x38 }
  - { offsetInCU: 0xC620, offset: 0xC620, size: 0x8, addend: 0x0, symName: __ZNSt3__18ios_base8setstateB8ue170006Ej, symObjAddr: 0x2864, symBinAddr: 0x1000049EC, symSize: 0x34 }
  - { offsetInCU: 0xC656, offset: 0xC656, size: 0x8, addend: 0x0, symName: __ZNSt3__112basic_stringIcNS_11char_traitsIcEENS_9allocatorIcEEEC2B8ue170006Ev, symObjAddr: 0x28BC, symBinAddr: 0x100004A44, symSize: 0x3C }
  - { offsetInCU: 0xC67F, offset: 0xC67F, size: 0x8, addend: 0x0, symName: __ZNSt3__112basic_stringIcNS_11char_traitsIcEENS_9allocatorIcEEE14__default_initB8ue170006Ev, symObjAddr: 0x28F8, symBinAddr: 0x100004A80, symSize: 0xB0 }
  - { offsetInCU: 0xC6D1, offset: 0xC6D1, size: 0x8, addend: 0x0, symName: __ZNSt3__117__compressed_pairINS_12basic_stringIcNS_11char_traitsIcEENS_9allocatorIcEEE5__repES5_E5firstB8ue170006Ev, symObjAddr: 0x29A8, symBinAddr: 0x100004B30, symSize: 0x24 }
  - { offsetInCU: 0xC6F6, offset: 0xC6F6, size: 0x8, addend: 0x0, symName: __ZNSt3__112basic_stringIcNS_11char_traitsIcEENS_9allocatorIcEEE11__recommendB8ue170006Em, symObjAddr: 0x29CC, symBinAddr: 0x100004B54, symSize: 0x9C }
  - { offsetInCU: 0xC729, offset: 0xC729, size: 0x8, addend: 0x0, symName: __ZNSt3__116allocator_traitsINS_9allocatorIcEEE8allocateB8ue170006ERS2_m, symObjAddr: 0x2A68, symBinAddr: 0x100004BF0, symSize: 0x2C }
  - { offsetInCU: 0xC75C, offset: 0xC75C, size: 0x8, addend: 0x0, symName: __ZNSt3__112basic_stringIcNS_11char_traitsIcEENS_9allocatorIcEEE7__allocB8ue170006Ev, symObjAddr: 0x2A94, symBinAddr: 0x100004C1C, symSize: 0x24 }
  - { offsetInCU: 0xC781, offset: 0xC781, size: 0x8, addend: 0x0, symName: __ZNSt3__112basic_stringIcNS_11char_traitsIcEENS_9allocatorIcEEE16__begin_lifetimeB8ue170006EPcm, symObjAddr: 0x2AB8, symBinAddr: 0x100004C40, symSize: 0x14 }
  - { offsetInCU: 0xC7B4, offset: 0xC7B4, size: 0x8, addend: 0x0, symName: __ZNSt3__112basic_stringIcNS_11char_traitsIcEENS_9allocatorIcEEE18__set_long_pointerB8ue170006EPc, symObjAddr: 0x2ACC, symBinAddr: 0x100004C54, symSize: 0x38 }
  - { offsetInCU: 0xC7E8, offset: 0xC7E8, size: 0x8, addend: 0x0, symName: __ZNSt3__112basic_stringIcNS_11char_traitsIcEENS_9allocatorIcEEE14__set_long_capB8ue170006Em, symObjAddr: 0x2B04, symBinAddr: 0x100004C8C, symSize: 0x70 }
  - { offsetInCU: 0xC81C, offset: 0xC81C, size: 0x8, addend: 0x0, symName: __ZNSt3__112basic_stringIcNS_11char_traitsIcEENS_9allocatorIcEEE15__set_long_sizeB8ue170006Em, symObjAddr: 0x2B74, symBinAddr: 0x100004CFC, symSize: 0x38 }
  - { offsetInCU: 0xC850, offset: 0xC850, size: 0x8, addend: 0x0, symName: __ZNSt3__122__compressed_pair_elemINS_12basic_stringIcNS_11char_traitsIcEENS_9allocatorIcEEE5__repELi0ELb0EE5__getB8ue170006Ev, symObjAddr: 0x2BAC, symBinAddr: 0x100004D34, symSize: 0x14 }
  - { offsetInCU: 0xC875, offset: 0xC875, size: 0x8, addend: 0x0, symName: __ZNSt3__112basic_stringIcNS_11char_traitsIcEENS_9allocatorIcEEE10__align_itB8ue170006ILm16EEEmm, symObjAddr: 0x2BC0, symBinAddr: 0x100004D48, symSize: 0x1C }
  - { offsetInCU: 0xC8A3, offset: 0xC8A3, size: 0x8, addend: 0x0, symName: __ZNSt3__19allocatorIcE8allocateB8ue170006Em, symObjAddr: 0x2BDC, symBinAddr: 0x100004D64, symSize: 0x84 }
  - { offsetInCU: 0xC8E0, offset: 0xC8E0, size: 0x8, addend: 0x0, symName: __ZNSt3__116allocator_traitsINS_9allocatorIcEEE8max_sizeB8ue170006IS2_vEEmRKS2_, symObjAddr: 0x2C60, symBinAddr: 0x100004DE8, symSize: 0x24 }
  - { offsetInCU: 0xC90E, offset: 0xC90E, size: 0x8, addend: 0x0, symName: __ZNKSt3__19allocatorIcE8max_sizeB8ue170006Ev, symObjAddr: 0x2CE0, symBinAddr: 0x100004E68, symSize: 0x14 }
  - { offsetInCU: 0xC933, offset: 0xC933, size: 0x8, addend: 0x0, symName: __ZNSt3__117__compressed_pairINS_12basic_stringIcNS_11char_traitsIcEENS_9allocatorIcEEE5__repES5_E6secondB8ue170006Ev, symObjAddr: 0x2D18, symBinAddr: 0x100004EA0, symSize: 0x24 }
  - { offsetInCU: 0xC958, offset: 0xC958, size: 0x8, addend: 0x0, symName: __ZNSt3__122__compressed_pair_elemINS_9allocatorIcEELi1ELb1EE5__getB8ue170006Ev, symObjAddr: 0x2D3C, symBinAddr: 0x100004EC4, symSize: 0x14 }
  - { offsetInCU: 0xCA0F, offset: 0xCA0F, size: 0x8, addend: 0x0, symName: __ZNKSt3__113basic_istreamIcNS_11char_traitsIcEEE6sentrycvbB8ue170006Ev, symObjAddr: 0x2D50, symBinAddr: 0x100004ED8, symSize: 0x1C }
  - { offsetInCU: 0xCA33, offset: 0xCA33, size: 0x8, addend: 0x0, symName: __ZNSt3__112basic_stringIcNS_11char_traitsIcEENS_9allocatorIcEEE5clearB8ue170006Ev, symObjAddr: 0x2D6C, symBinAddr: 0x100004EF4, symSize: 0x78 }
  - { offsetInCU: 0xCA5A, offset: 0xCA5A, size: 0x8, addend: 0x0, symName: __ZNKSt3__112basic_stringIcNS_11char_traitsIcEENS_9allocatorIcEEE8max_sizeB8ue170006Ev, symObjAddr: 0x2DE4, symBinAddr: 0x100004F6C, symSize: 0xAC }
  - { offsetInCU: 0xCAAC, offset: 0xCAAC, size: 0x8, addend: 0x0, symName: __ZNSt3__114numeric_limitsIlE3maxB8ue170006Ev, symObjAddr: 0x2E90, symBinAddr: 0x100005018, symSize: 0x14 }
  - { offsetInCU: 0xCAC0, offset: 0xCAC0, size: 0x8, addend: 0x0, symName: __ZNSt3__115basic_streambufIcNS_11char_traitsIcEEE5sgetcB8ue170006Ev, symObjAddr: 0x2EA4, symBinAddr: 0x10000502C, symSize: 0x70 }
  - { offsetInCU: 0xCAE5, offset: 0xCAE5, size: 0x8, addend: 0x0, symName: __ZNSt3__111char_traitsIcE12to_char_typeB8ue170006Ei, symObjAddr: 0x2F14, symBinAddr: 0x10000509C, symSize: 0x18 }
  - { offsetInCU: 0xCB08, offset: 0xCB08, size: 0x8, addend: 0x0, symName: __ZNKSt3__15ctypeIcE2isB8ue170006Ejc, symObjAddr: 0x2F2C, symBinAddr: 0x1000050B4, symSize: 0x7C }
  - { offsetInCU: 0xCB4B, offset: 0xCB4B, size: 0x8, addend: 0x0, symName: __ZNSt3__115basic_streambufIcNS_11char_traitsIcEEE6sbumpcB8ue170006Ev, symObjAddr: 0x2FA8, symBinAddr: 0x100005130, symSize: 0x78 }
  - { offsetInCU: 0xCB70, offset: 0xCB70, size: 0x8, addend: 0x0, symName: __ZNSt3__18ios_base18__setstate_nothrowB8ue170006Ej, symObjAddr: 0x3020, symBinAddr: 0x1000051A8, symSize: 0x64 }
  - { offsetInCU: 0xCBA4, offset: 0xCBA4, size: 0x8, addend: 0x0, symName: __ZNKSt3__19basic_iosIcNS_11char_traitsIcEEE10exceptionsB8ue170006Ev, symObjAddr: 0x3084, symBinAddr: 0x10000520C, symSize: 0x24 }
  - { offsetInCU: 0xCBC9, offset: 0xCBC9, size: 0x8, addend: 0x0, symName: __ZNSt3__111char_traitsIcE6assignB8ue170006ERcRKc, symObjAddr: 0x30A8, symBinAddr: 0x100005230, symSize: 0x24 }
  - { offsetInCU: 0xCBFA, offset: 0xCBFA, size: 0x8, addend: 0x0, symName: __ZNSt3__112basic_stringIcNS_11char_traitsIcEENS_9allocatorIcEEE18__get_long_pointerB8ue170006Ev, symObjAddr: 0x30CC, symBinAddr: 0x100005254, symSize: 0x28 }
  - { offsetInCU: 0xCC1F, offset: 0xCC1F, size: 0x8, addend: 0x0, symName: __ZNSt3__112basic_stringIcNS_11char_traitsIcEENS_9allocatorIcEEE19__get_short_pointerB8ue170006Ev, symObjAddr: 0x30F4, symBinAddr: 0x10000527C, symSize: 0x28 }
  - { offsetInCU: 0xCC44, offset: 0xCC44, size: 0x8, addend: 0x0, symName: __ZNSt3__112basic_stringIcNS_11char_traitsIcEENS_9allocatorIcEEE16__set_short_sizeB8ue170006Em, symObjAddr: 0x311C, symBinAddr: 0x1000052A4, symSize: 0x78 }
  - { offsetInCU: 0xCC78, offset: 0xCC78, size: 0x8, addend: 0x0, symName: __ZNSt3__114pointer_traitsIPcE10pointer_toB8ue170006ERc, symObjAddr: 0x3194, symBinAddr: 0x10000531C, symSize: 0x14 }
  - { offsetInCU: 0xCC9B, offset: 0xCC9B, size: 0x8, addend: 0x0, symName: __ZNKSt3__112basic_stringIcNS_11char_traitsIcEENS_9allocatorIcEEE7__allocB8ue170006Ev, symObjAddr: 0x31A8, symBinAddr: 0x100005330, symSize: 0x24 }
  - { offsetInCU: 0xCCC0, offset: 0xCCC0, size: 0x8, addend: 0x0, symName: __ZNSt3__114numeric_limitsImE3maxB8ue170006Ev, symObjAddr: 0x31CC, symBinAddr: 0x100005354, symSize: 0x14 }
  - { offsetInCU: 0xCCD4, offset: 0xCCD4, size: 0x8, addend: 0x0, symName: __ZNKSt3__117__compressed_pairINS_12basic_stringIcNS_11char_traitsIcEENS_9allocatorIcEEE5__repES5_E6secondB8ue170006Ev, symObjAddr: 0x31E0, symBinAddr: 0x100005368, symSize: 0x24 }
  - { offsetInCU: 0xCCF9, offset: 0xCCF9, size: 0x8, addend: 0x0, symName: __ZNKSt3__122__compressed_pair_elemINS_9allocatorIcEELi1ELb1EE5__getB8ue170006Ev, symObjAddr: 0x3204, symBinAddr: 0x10000538C, symSize: 0x14 }
  - { offsetInCU: 0xCD1E, offset: 0xCD1E, size: 0x8, addend: 0x0, symName: __ZNSt3__123__libcpp_numeric_limitsImLb1EE3maxB8ue170006Ev, symObjAddr: 0x3218, symBinAddr: 0x1000053A0, symSize: 0x8 }
  - { offsetInCU: 0xCD32, offset: 0xCD32, size: 0x8, addend: 0x0, symName: __ZNSt3__123__libcpp_numeric_limitsIlLb1EE3maxB8ue170006Ev, symObjAddr: 0x3220, symBinAddr: 0x1000053A8, symSize: 0x8 }
  - { offsetInCU: 0xCD46, offset: 0xCD46, size: 0x8, addend: 0x0, symName: __ZNSt3__111char_traitsIcE11to_int_typeB8ue170006Ec, symObjAddr: 0x3228, symBinAddr: 0x1000053B0, symSize: 0x14 }
  - { offsetInCU: 0xCD69, offset: 0xCD69, size: 0x8, addend: 0x0, symName: __Z7isasciii, symObjAddr: 0x323C, symBinAddr: 0x1000053C4, symSize: 0x24 }
  - { offsetInCU: 0xCD96, offset: 0xCD96, size: 0x8, addend: 0x0, symName: __ZNKSt3__18ios_base10exceptionsB8ue170006Ev, symObjAddr: 0x3260, symBinAddr: 0x1000053E8, symSize: 0x18 }
  - { offsetInCU: 0xCDBD, offset: 0xCDBD, size: 0x8, addend: 0x0, symName: __ZNSt3__16vectorI9PassengerNS_9allocatorIS1_EEE9__end_capB8ue170006Ev, symObjAddr: 0x3278, symBinAddr: 0x100005400, symSize: 0x28 }
  - { offsetInCU: 0xCDE2, offset: 0xCDE2, size: 0x8, addend: 0x0, symName: __ZNSt3__16vectorI9PassengerNS_9allocatorIS1_EEE22__construct_one_at_endB8ue170006IJRKS1_EEEvDpOT_, symObjAddr: 0x32A0, symBinAddr: 0x100005428, symSize: 0x98 }
  - { offsetInCU: 0xCE2F, offset: 0xCE2F, size: 0x8, addend: 0x0, symName: __ZNSt3__16vectorI9PassengerNS_9allocatorIS1_EEE21__push_back_slow_pathIRKS1_EEvOT_, symObjAddr: 0x3338, symBinAddr: 0x1000054C0, symSize: 0xE0 }
  - { offsetInCU: 0xCE8C, offset: 0xCE8C, size: 0x8, addend: 0x0, symName: __ZNSt3__117__compressed_pairIP9PassengerNS_9allocatorIS1_EEE5firstB8ue170006Ev, symObjAddr: 0x3418, symBinAddr: 0x1000055A0, symSize: 0x24 }
  - { offsetInCU: 0xCEB1, offset: 0xCEB1, size: 0x8, addend: 0x0, symName: __ZNSt3__122__compressed_pair_elemIP9PassengerLi0ELb0EE5__getB8ue170006Ev, symObjAddr: 0x343C, symBinAddr: 0x1000055C4, symSize: 0x14 }
  - { offsetInCU: 0xCEEF, offset: 0xCEEF, size: 0x8, addend: 0x0, symName: __ZNSt3__16vectorI9PassengerNS_9allocatorIS1_EEE21_ConstructTransactionC1B8ue170006ERS4_m, symObjAddr: 0x3450, symBinAddr: 0x1000055D8, symSize: 0x3C }
  - { offsetInCU: 0xCF36, offset: 0xCF36, size: 0x8, addend: 0x0, symName: __ZNSt3__116allocator_traitsINS_9allocatorI9PassengerEEE9constructB8ue170006IS2_JRKS2_EvEEvRS3_PT_DpOT0_, symObjAddr: 0x348C, symBinAddr: 0x100005614, symSize: 0x34 }
  - { offsetInCU: 0xCF8D, offset: 0xCF8D, size: 0x8, addend: 0x0, symName: __ZNSt3__16vectorI9PassengerNS_9allocatorIS1_EEE21_ConstructTransactionD1B8ue170006Ev, symObjAddr: 0x34C0, symBinAddr: 0x100005648, symSize: 0x2C }
  - { offsetInCU: 0xCFB6, offset: 0xCFB6, size: 0x8, addend: 0x0, symName: __ZNSt3__16vectorI9PassengerNS_9allocatorIS1_EEE21_ConstructTransactionC2B8ue170006ERS4_m, symObjAddr: 0x34EC, symBinAddr: 0x100005674, symSize: 0x4C }
  - { offsetInCU: 0xCFFD, offset: 0xCFFD, size: 0x8, addend: 0x0, symName: __ZNSt3__19allocatorI9PassengerE9constructB8ue170006IS1_JRKS1_EEEvPT_DpOT0_, symObjAddr: 0x3538, symBinAddr: 0x1000056C0, symSize: 0x30 }
  - { offsetInCU: 0xD052, offset: 0xD052, size: 0x8, addend: 0x0, symName: __ZN9PassengerC1ERKS_, symObjAddr: 0x3568, symBinAddr: 0x1000056F0, symSize: 0x34 }
  - { offsetInCU: 0xD086, offset: 0xD086, size: 0x8, addend: 0x0, symName: __ZN9PassengerC2ERKS_, symObjAddr: 0x359C, symBinAddr: 0x100005724, symSize: 0x8C }
  - { offsetInCU: 0xD0BA, offset: 0xD0BA, size: 0x8, addend: 0x0, symName: __ZNSt3__16vectorI9PassengerNS_9allocatorIS1_EEE21_ConstructTransactionD2B8ue170006Ev, symObjAddr: 0x3628, symBinAddr: 0x1000057B0, symSize: 0x20 }
  - { offsetInCU: 0xD0E2, offset: 0xD0E2, size: 0x8, addend: 0x0, symName: __ZNKSt3__16vectorI9PassengerNS_9allocatorIS1_EEE11__recommendB8ue170006Em, symObjAddr: 0x3648, symBinAddr: 0x1000057D0, symSize: 0xB4 }
  - { offsetInCU: 0xD136, offset: 0xD136, size: 0x8, addend: 0x0, symName: __ZNSt3__114__split_bufferI9PassengerRNS_9allocatorIS1_EEEC1EmmS4_, symObjAddr: 0x36FC, symBinAddr: 0x100005884, symSize: 0x44 }
  - { offsetInCU: 0xD18B, offset: 0xD18B, size: 0x8, addend: 0x0, symName: __ZNSt3__114__split_bufferI9PassengerRNS_9allocatorIS1_EEED1Ev, symObjAddr: 0x3850, symBinAddr: 0x1000059D8, symSize: 0x2C }
  - { offsetInCU: 0xD1B5, offset: 0xD1B5, size: 0x8, addend: 0x0, symName: __ZNKSt3__16vectorI9PassengerNS_9allocatorIS1_EEE8max_sizeEv, symObjAddr: 0x387C, symBinAddr: 0x100005A04, symSize: 0x74 }
  - { offsetInCU: 0xD1DC, offset: 0xD1DC, size: 0x8, addend: 0x0, symName: __ZNKSt3__16vectorI9PassengerNS_9allocatorIS1_EEE20__throw_length_errorB8ue170006Ev, symObjAddr: 0x38F0, symBinAddr: 0x100005A78, symSize: 0x1C }
  - { offsetInCU: 0xD20B, offset: 0xD20B, size: 0x8, addend: 0x0, symName: __ZNSt3__116allocator_traitsINS_9allocatorI9PassengerEEE8max_sizeB8ue170006IS3_vEEmRKS3_, symObjAddr: 0x3964, symBinAddr: 0x100005AEC, symSize: 0x24 }
  - { offsetInCU: 0xD239, offset: 0xD239, size: 0x8, addend: 0x0, symName: __ZNKSt3__16vectorI9PassengerNS_9allocatorIS1_EEE7__allocB8ue170006Ev, symObjAddr: 0x3988, symBinAddr: 0x100005B10, symSize: 0x28 }
  - { offsetInCU: 0xD272, offset: 0xD272, size: 0x8, addend: 0x0, symName: __ZNKSt3__16__lessIvvEclB8ue170006ImmEEbRKT_RKT0_, symObjAddr: 0x3A04, symBinAddr: 0x100005B8C, symSize: 0x34 }
  - { offsetInCU: 0xD2C5, offset: 0xD2C5, size: 0x8, addend: 0x0, symName: __ZNKSt3__19allocatorI9PassengerE8max_sizeB8ue170006Ev, symObjAddr: 0x3A38, symBinAddr: 0x100005BC0, symSize: 0x20 }
  - { offsetInCU: 0xD2EA, offset: 0xD2EA, size: 0x8, addend: 0x0, symName: __ZNKSt3__117__compressed_pairIP9PassengerNS_9allocatorIS1_EEE6secondB8ue170006Ev, symObjAddr: 0x3A58, symBinAddr: 0x100005BE0, symSize: 0x24 }
  - { offsetInCU: 0xD30F, offset: 0xD30F, size: 0x8, addend: 0x0, symName: __ZNKSt3__122__compressed_pair_elemINS_9allocatorI9PassengerEELi1ELb1EE5__getB8ue170006Ev, symObjAddr: 0x3A7C, symBinAddr: 0x100005C04, symSize: 0x14 }
  - { offsetInCU: 0xD334, offset: 0xD334, size: 0x8, addend: 0x0, symName: __ZNSt12length_errorC1B8ue170006EPKc, symObjAddr: 0x3AF4, symBinAddr: 0x100005C7C, symSize: 0x34 }
  - { offsetInCU: 0xD36B, offset: 0xD36B, size: 0x8, addend: 0x0, symName: __ZNSt12length_errorC2B8ue170006EPKc, symObjAddr: 0x3B28, symBinAddr: 0x100005CB0, symSize: 0x4C }
  - { offsetInCU: 0xD3A2, offset: 0xD3A2, size: 0x8, addend: 0x0, symName: __ZNSt3__114__split_bufferI9PassengerRNS_9allocatorIS1_EEEC2EmmS4_, symObjAddr: 0x3BC8, symBinAddr: 0x100005D50, symSize: 0xE0 }
  - { offsetInCU: 0xD415, offset: 0xD415, size: 0x8, addend: 0x0, symName: __ZNSt3__117__compressed_pairIP9PassengerRNS_9allocatorIS1_EEEC1B8ue170006IDnS5_EEOT_OT0_, symObjAddr: 0x3CA8, symBinAddr: 0x100005E30, symSize: 0x3C }
  - { offsetInCU: 0xD46C, offset: 0xD46C, size: 0x8, addend: 0x0, symName: __ZNSt3__114__split_bufferI9PassengerRNS_9allocatorIS1_EEE7__allocB8ue170006Ev, symObjAddr: 0x3D24, symBinAddr: 0x100005EAC, symSize: 0x28 }
  - { offsetInCU: 0xD491, offset: 0xD491, size: 0x8, addend: 0x0, symName: __ZNSt3__114__split_bufferI9PassengerRNS_9allocatorIS1_EEE9__end_capB8ue170006Ev, symObjAddr: 0x3D4C, symBinAddr: 0x100005ED4, symSize: 0x28 }
  - { offsetInCU: 0xD4B6, offset: 0xD4B6, size: 0x8, addend: 0x0, symName: __ZNSt3__117__compressed_pairIP9PassengerRNS_9allocatorIS1_EEEC2B8ue170006IDnS5_EEOT_OT0_, symObjAddr: 0x3D74, symBinAddr: 0x100005EFC, symSize: 0x48 }
  - { offsetInCU: 0xD50D, offset: 0xD50D, size: 0x8, addend: 0x0, symName: __ZNSt3__122__compressed_pair_elemIRNS_9allocatorI9PassengerEELi1ELb0EEC2B8ue170006IS4_vEEOT_, symObjAddr: 0x3DBC, symBinAddr: 0x100005F44, symSize: 0x20 }
  - { offsetInCU: 0xD54E, offset: 0xD54E, size: 0x8, addend: 0x0, symName: __ZNSt3__19allocatorI9PassengerE8allocateB8ue170006Em, symObjAddr: 0x3DDC, symBinAddr: 0x100005F64, symSize: 0x8C }
  - { offsetInCU: 0xD581, offset: 0xD581, size: 0x8, addend: 0x0, symName: __ZNSt3__117__compressed_pairIP9PassengerRNS_9allocatorIS1_EEE6secondB8ue170006Ev, symObjAddr: 0x3E68, symBinAddr: 0x100005FF0, symSize: 0x28 }
  - { offsetInCU: 0xD5A6, offset: 0xD5A6, size: 0x8, addend: 0x0, symName: __ZNSt3__122__compressed_pair_elemIRNS_9allocatorI9PassengerEELi1ELb0EE5__getB8ue170006Ev, symObjAddr: 0x3E90, symBinAddr: 0x100006018, symSize: 0x18 }
  - { offsetInCU: 0xD5CB, offset: 0xD5CB, size: 0x8, addend: 0x0, symName: __ZNSt3__117__compressed_pairIP9PassengerRNS_9allocatorIS1_EEE5firstB8ue170006Ev, symObjAddr: 0x3EA8, symBinAddr: 0x100006030, symSize: 0x24 }
  - { offsetInCU: 0xD5F0, offset: 0xD5F0, size: 0x8, addend: 0x0, symName: __ZNSt3__116reverse_iteratorIP9PassengerEC1B8ue170006ES2_, symObjAddr: 0x4000, symBinAddr: 0x100006188, symSize: 0x34 }
  - { offsetInCU: 0xD627, offset: 0xD627, size: 0x8, addend: 0x0, symName: __ZNKSt3__116reverse_iteratorIP9PassengerE4baseB8ue170006Ev, symObjAddr: 0x4034, symBinAddr: 0x1000061BC, symSize: 0x18 }
  - { offsetInCU: 0xD64C, offset: 0xD64C, size: 0x8, addend: 0x0, symName: __ZNKSt3__16vectorI9PassengerNS_9allocatorIS1_EEE14__annotate_newB8ue170006Em, symObjAddr: 0x4088, symBinAddr: 0x100006210, symSize: 0xC8 }
  - { offsetInCU: 0xD680, offset: 0xD680, size: 0x8, addend: 0x0, symName: __ZNSt3__129_AllocatorDestroyRangeReverseINS_9allocatorI9PassengerEENS_16reverse_iteratorIPS2_EEEC1B8ue170006ERS3_RS6_S9_, symObjAddr: 0x419C, symBinAddr: 0x100006324, symSize: 0x44 }
  - { offsetInCU: 0xD6D6, offset: 0xD6D6, size: 0x8, addend: 0x0, symName: __ZNKSt3__116reverse_iteratorIP9PassengerEdeB8ue170006Ev, symObjAddr: 0x424C, symBinAddr: 0x1000063D4, symSize: 0x28 }
  - { offsetInCU: 0xD709, offset: 0xD709, size: 0x8, addend: 0x0, symName: __ZNSt3__116reverse_iteratorIP9PassengerEppB8ue170006Ev, symObjAddr: 0x4274, symBinAddr: 0x1000063FC, symSize: 0x20 }
  - { offsetInCU: 0xD72E, offset: 0xD72E, size: 0x8, addend: 0x0, symName: __ZNSt3__128__exception_guard_exceptionsINS_29_AllocatorDestroyRangeReverseINS_9allocatorI9PassengerEENS_16reverse_iteratorIPS3_EEEEE10__completeB8ue170006Ev, symObjAddr: 0x4294, symBinAddr: 0x10000641C, symSize: 0x1C }
  - { offsetInCU: 0xD753, offset: 0xD753, size: 0x8, addend: 0x0, symName: __ZNSt3__128__exception_guard_exceptionsINS_29_AllocatorDestroyRangeReverseINS_9allocatorI9PassengerEENS_16reverse_iteratorIPS3_EEEEED1B8ue170006Ev, symObjAddr: 0x42B0, symBinAddr: 0x100006438, symSize: 0x2C }
  - { offsetInCU: 0xD77C, offset: 0xD77C, size: 0x8, addend: 0x0, symName: __ZNSt3__128__exception_guard_exceptionsINS_29_AllocatorDestroyRangeReverseINS_9allocatorI9PassengerEENS_16reverse_iteratorIPS3_EEEEEC1B8ue170006ES8_, symObjAddr: 0x42DC, symBinAddr: 0x100006464, symSize: 0x34 }
  - { offsetInCU: 0xD7B4, offset: 0xD7B4, size: 0x8, addend: 0x0, symName: __ZNSt3__128__exception_guard_exceptionsINS_29_AllocatorDestroyRangeReverseINS_9allocatorI9PassengerEENS_16reverse_iteratorIPS3_EEEEEC2B8ue170006ES8_, symObjAddr: 0x4310, symBinAddr: 0x100006498, symSize: 0x30 }
  - { offsetInCU: 0xD7EC, offset: 0xD7EC, size: 0x8, addend: 0x0, symName: __ZNSt3__129_AllocatorDestroyRangeReverseINS_9allocatorI9PassengerEENS_16reverse_iteratorIPS2_EEEC2B8ue170006ERS3_RS6_S9_, symObjAddr: 0x4340, symBinAddr: 0x1000064C8, symSize: 0x38 }
  - { offsetInCU: 0xD847, offset: 0xD847, size: 0x8, addend: 0x0, symName: __ZNSt3__119__to_address_helperINS_16reverse_iteratorIP9PassengerEEvE6__callB8ue170006ERKS4_, symObjAddr: 0x4378, symBinAddr: 0x100006500, symSize: 0x4C }
  - { offsetInCU: 0xD86A, offset: 0xD86A, size: 0x8, addend: 0x0, symName: __ZNKSt3__116reverse_iteratorIP9PassengerEptB8ue170006Ev, symObjAddr: 0x43C4, symBinAddr: 0x10000654C, symSize: 0x24 }
  - { offsetInCU: 0xD88F, offset: 0xD88F, size: 0x8, addend: 0x0, symName: __ZNSt3__128__exception_guard_exceptionsINS_29_AllocatorDestroyRangeReverseINS_9allocatorI9PassengerEENS_16reverse_iteratorIPS3_EEEEED2B8ue170006Ev, symObjAddr: 0x43E8, symBinAddr: 0x100006570, symSize: 0x48 }
  - { offsetInCU: 0xD8B8, offset: 0xD8B8, size: 0x8, addend: 0x0, symName: __ZNKSt3__129_AllocatorDestroyRangeReverseINS_9allocatorI9PassengerEENS_16reverse_iteratorIPS2_EEEclB8ue170006Ev, symObjAddr: 0x4430, symBinAddr: 0x1000065B8, symSize: 0xB4 }
  - { offsetInCU: 0xD8DE, offset: 0xD8DE, size: 0x8, addend: 0x0, symName: __ZNSt3__116reverse_iteratorINS0_IP9PassengerEEEC1B8ue170006ES3_, symObjAddr: 0x4554, symBinAddr: 0x1000066DC, symSize: 0x3C }
  - { offsetInCU: 0xD915, offset: 0xD915, size: 0x8, addend: 0x0, symName: __ZNSt3__116reverse_iteratorINS0_IP9PassengerEEEppB8ue170006Ev, symObjAddr: 0x4614, symBinAddr: 0x10000679C, symSize: 0x30 }
  - { offsetInCU: 0xD93A, offset: 0xD93A, size: 0x8, addend: 0x0, symName: __ZNKSt3__116reverse_iteratorINS0_IP9PassengerEEE4baseB8ue170006Ev, symObjAddr: 0x4644, symBinAddr: 0x1000067CC, symSize: 0x24 }
  - { offsetInCU: 0xD964, offset: 0xD964, size: 0x8, addend: 0x0, symName: __ZNSt3__119__to_address_helperINS_16reverse_iteratorINS1_IP9PassengerEEEEvE6__callB8ue170006ERKS5_, symObjAddr: 0x4668, symBinAddr: 0x1000067F0, symSize: 0x4C }
  - { offsetInCU: 0xD987, offset: 0xD987, size: 0x8, addend: 0x0, symName: __ZNKSt3__116reverse_iteratorINS0_IP9PassengerEEEptB8ue170006Ev, symObjAddr: 0x46B4, symBinAddr: 0x10000683C, symSize: 0x24 }
  - { offsetInCU: 0xD9AC, offset: 0xD9AC, size: 0x8, addend: 0x0, symName: __ZNKSt3__116reverse_iteratorINS0_IP9PassengerEEEdeB8ue170006Ev, symObjAddr: 0x46D8, symBinAddr: 0x100006860, symSize: 0x34 }
  - { offsetInCU: 0xD9DF, offset: 0xD9DF, size: 0x8, addend: 0x0, symName: __ZNSt3__116reverse_iteratorIP9PassengerEmmB8ue170006Ev, symObjAddr: 0x470C, symBinAddr: 0x100006894, symSize: 0x20 }
  - { offsetInCU: 0xDA04, offset: 0xDA04, size: 0x8, addend: 0x0, symName: __ZNSt3__116reverse_iteratorINS0_IP9PassengerEEEC2B8ue170006ES3_, symObjAddr: 0x472C, symBinAddr: 0x1000068B4, symSize: 0x2C }
  - { offsetInCU: 0xDA3B, offset: 0xDA3B, size: 0x8, addend: 0x0, symName: __ZNSt3__116reverse_iteratorIP9PassengerEC2B8ue170006ES2_, symObjAddr: 0x4758, symBinAddr: 0x1000068E0, symSize: 0x28 }
  - { offsetInCU: 0xDA72, offset: 0xDA72, size: 0x8, addend: 0x0, symName: __ZNSt3__114__split_bufferI9PassengerRNS_9allocatorIS1_EEED2Ev, symObjAddr: 0x4780, symBinAddr: 0x100006908, symSize: 0x80 }
  - { offsetInCU: 0xDA9D, offset: 0xDA9D, size: 0x8, addend: 0x0, symName: __ZNSt3__114__split_bufferI9PassengerRNS_9allocatorIS1_EEE5clearB8ue170006Ev, symObjAddr: 0x4800, symBinAddr: 0x100006988, symSize: 0x28 }
  - { offsetInCU: 0xDAC2, offset: 0xDAC2, size: 0x8, addend: 0x0, symName: __ZNKSt3__114__split_bufferI9PassengerRNS_9allocatorIS1_EEE8capacityB8ue170006Ev, symObjAddr: 0x4828, symBinAddr: 0x1000069B0, symSize: 0x40 }
  - { offsetInCU: 0xDAE7, offset: 0xDAE7, size: 0x8, addend: 0x0, symName: __ZNSt3__114__split_bufferI9PassengerRNS_9allocatorIS1_EEE17__destruct_at_endB8ue170006EPS1_, symObjAddr: 0x4868, symBinAddr: 0x1000069F0, symSize: 0x2C }
  - { offsetInCU: 0xDB19, offset: 0xDB19, size: 0x8, addend: 0x0, symName: __ZNSt3__114__split_bufferI9PassengerRNS_9allocatorIS1_EEE17__destruct_at_endB8ue170006EPS1_NS_17integral_constantIbLb0EEE, symObjAddr: 0x4894, symBinAddr: 0x100006A1C, symSize: 0x94 }
  - { offsetInCU: 0xDB59, offset: 0xDB59, size: 0x8, addend: 0x0, symName: __ZNKSt3__114__split_bufferI9PassengerRNS_9allocatorIS1_EEE9__end_capB8ue170006Ev, symObjAddr: 0x4928, symBinAddr: 0x100006AB0, symSize: 0x28 }
  - { offsetInCU: 0xDB7E, offset: 0xDB7E, size: 0x8, addend: 0x0, symName: __ZNKSt3__117__compressed_pairIP9PassengerRNS_9allocatorIS1_EEE5firstB8ue170006Ev, symObjAddr: 0x4950, symBinAddr: 0x100006AD8, symSize: 0x24 }
  - { offsetInCU: 0xDBA3, offset: 0xDBA3, size: 0x8, addend: 0x0, symName: __ZNKSt3__112basic_stringIcNS_11char_traitsIcEENS_9allocatorIcEEE4sizeB8ue170006Ev, symObjAddr: 0x4974, symBinAddr: 0x100006AFC, symSize: 0x54 }
  - { offsetInCU: 0xDBC8, offset: 0xDBC8, size: 0x8, addend: 0x0, symName: __ZNSt3__111char_traitsIcE7compareB8ue170006EPKcS3_m, symObjAddr: 0x49C8, symBinAddr: 0x100006B50, symSize: 0x64 }
  - { offsetInCU: 0xDC07, offset: 0xDC07, size: 0x8, addend: 0x0, symName: __ZNKSt3__112basic_stringIcNS_11char_traitsIcEENS_9allocatorIcEEE15__get_long_sizeB8ue170006Ev, symObjAddr: 0x4A2C, symBinAddr: 0x100006BB4, symSize: 0x28 }
  - { offsetInCU: 0xDC2C, offset: 0xDC2C, size: 0x8, addend: 0x0, symName: __ZNKSt3__112basic_stringIcNS_11char_traitsIcEENS_9allocatorIcEEE16__get_short_sizeB8ue170006Ev, symObjAddr: 0x4A54, symBinAddr: 0x100006BDC, symSize: 0x34 }
  - { offsetInCU: 0xDC51, offset: 0xDC51, size: 0x8, addend: 0x0, symName: __ZNSt3__16vectorI9PassengerNS_9allocatorIS1_EEE11__make_iterB8ue170006EPS1_, symObjAddr: 0x4A88, symBinAddr: 0x100006C10, symSize: 0x30 }
  - { offsetInCU: 0xDC85, offset: 0xDC85, size: 0x8, addend: 0x0, symName: __ZNSt3__111__wrap_iterIP9PassengerEC1B8ue170006ES2_, symObjAddr: 0x4AB8, symBinAddr: 0x100006C40, symSize: 0x34 }
  - { offsetInCU: 0xDCBC, offset: 0xDCBC, size: 0x8, addend: 0x0, symName: __ZNSt3__111__wrap_iterIP9PassengerEC2B8ue170006ES2_, symObjAddr: 0x4AEC, symBinAddr: 0x100006C74, symSize: 0x20 }
  - { offsetInCU: 0xDCF3, offset: 0xDCF3, size: 0x8, addend: 0x0, symName: __ZNSt3__111__wrap_iterIP9PassengerEpLB8ue170006El, symObjAddr: 0x4B0C, symBinAddr: 0x100006C94, symSize: 0x30 }
  - { offsetInCU: 0xDD26, offset: 0xDD26, size: 0x8, addend: 0x0, symName: __ZNKSt3__16vectorI9PassengerNS_9allocatorIS1_EEE6cbeginB8ue170006Ev, symObjAddr: 0x4B84, symBinAddr: 0x100006D0C, symSize: 0x2C }
  - { offsetInCU: 0xDD4B, offset: 0xDD4B, size: 0x8, addend: 0x0, symName: __ZNSt3__16vectorI9PassengerNS_9allocatorIS1_EEE17__destruct_at_endB8ue170006EPS1_, symObjAddr: 0x4BB0, symBinAddr: 0x100006D38, symSize: 0x4C }
  - { offsetInCU: 0xDD8E, offset: 0xDD8E, size: 0x8, addend: 0x0, symName: __ZNKSt3__111__wrap_iterIPK9PassengerE4baseB8ue170006Ev, symObjAddr: 0x4C3C, symBinAddr: 0x100006DC4, symSize: 0x18 }
  - { offsetInCU: 0xDDB2, offset: 0xDDB2, size: 0x8, addend: 0x0, symName: __ZNKSt3__16vectorI9PassengerNS_9allocatorIS1_EEE5beginB8ue170006Ev, symObjAddr: 0x4C54, symBinAddr: 0x100006DDC, symSize: 0x30 }
  - { offsetInCU: 0xDDD9, offset: 0xDDD9, size: 0x8, addend: 0x0, symName: __ZNKSt3__16vectorI9PassengerNS_9allocatorIS1_EEE11__make_iterB8ue170006EPKS1_, symObjAddr: 0x4C84, symBinAddr: 0x100006E0C, symSize: 0x30 }
  - { offsetInCU: 0xDE0D, offset: 0xDE0D, size: 0x8, addend: 0x0, symName: __ZNSt3__111__wrap_iterIPK9PassengerEC1B8ue170006ES3_, symObjAddr: 0x4CB4, symBinAddr: 0x100006E3C, symSize: 0x34 }
  - { offsetInCU: 0xDE44, offset: 0xDE44, size: 0x8, addend: 0x0, symName: __ZNSt3__111__wrap_iterIPK9PassengerEC2B8ue170006ES3_, symObjAddr: 0x4CE8, symBinAddr: 0x100006E70, symSize: 0x20 }
  - { offsetInCU: 0xDE7B, offset: 0xDE7B, size: 0x8, addend: 0x0, symName: __ZNKSt3__16vectorI9PassengerNS_9allocatorIS1_EEE17__annotate_shrinkB8ue170006Em, symObjAddr: 0x4D08, symBinAddr: 0x100006E90, symSize: 0xD0 }
  - { offsetInCU: 0xDED2, offset: 0xDED2, size: 0x8, addend: 0x0, symName: __ZNKSt3__111__move_loopINS_17_ClassicAlgPolicyEEclB8ue170006IP9PassengerS5_S5_EENS_4pairIT_T1_EES7_T0_S8_, symObjAddr: 0x4F74, symBinAddr: 0x1000070FC, symSize: 0x90 }
  - { offsetInCU: 0xDF41, offset: 0xDF41, size: 0x8, addend: 0x0, symName: __ZNSt3__18_IterOpsINS_17_ClassicAlgPolicyEE11__iter_moveB8ue170006IRP9PassengerEENS_9enable_ifIXsr12is_referenceIDTdeclsr3stdE7declvalIRT_EEEEE5valueEDTclsr3stdE4movedeclsr3stdE7declvalIS9_EEEEE4typeEOS8_, symObjAddr: 0x50DC, symBinAddr: 0x100007264, symSize: 0x28 }
  - { offsetInCU: 0xDF6D, offset: 0xDF6D, size: 0x8, addend: 0x0, symName: __ZN9PassengeraSERKS_, symObjAddr: 0x5104, symBinAddr: 0x10000728C, symSize: 0x5C }
  - { offsetInCU: 0xDF9D, offset: 0xDF9D, size: 0x8, addend: 0x0, symName: __ZNSt3__18_IterOpsINS_17_ClassicAlgPolicyEE25__validate_iter_referenceB8ue170006IRP9PassengerEEvv, symObjAddr: 0x5160, symBinAddr: 0x1000072E8, symSize: 0x4 }
  - { offsetInCU: 0xDFBB, offset: 0xDFBB, size: 0x8, addend: 0x0, symName: __ZNSt3__118__unwrap_iter_implIP9PassengerLb1EE8__unwrapB8ue170006ES2_, symObjAddr: 0x5164, symBinAddr: 0x1000072EC, symSize: 0x24 }
  - { offsetInCU: 0xDFDE, offset: 0xDFDE, size: 0x8, addend: 0x0, symName: __ZNSt3__14pairIP9PassengerS2_EC1B8ue170006ERKS2_S5_, symObjAddr: 0x5188, symBinAddr: 0x100007310, symSize: 0x3C }
  - { offsetInCU: 0xE023, offset: 0xE023, size: 0x8, addend: 0x0, symName: __ZNSt3__14pairIP9PassengerS2_EC2B8ue170006ERKS2_S5_, symObjAddr: 0x51C4, symBinAddr: 0x10000734C, symSize: 0x34 }
  - { offsetInCU: 0xE068, offset: 0xE068, size: 0x8, addend: 0x0, symName: __ZNSt3__118__unwrap_iter_implIP9PassengerLb1EE8__rewrapB8ue170006ES2_S2_, symObjAddr: 0x51F8, symBinAddr: 0x100007380, symSize: 0x58 }
  - { offsetInCU: 0xE099, offset: 0xE099, size: 0x8, addend: 0x0, symName: __ZNSt3__111__wrap_iterIPK9PassengerEC2B8ue170006IPS1_EERKNS0_IT_EEPNS_9enable_ifIXsr14is_convertibleIS7_S3_EE5valueEvE4typeE, symObjAddr: 0x5250, symBinAddr: 0x1000073D8, symSize: 0x40 }
  - { offsetInCU: 0xE0E4, offset: 0xE0E4, size: 0x8, addend: 0x0, symName: __ZNKSt3__111__wrap_iterIP9PassengerE4baseB8ue170006Ev, symObjAddr: 0x5290, symBinAddr: 0x100007418, symSize: 0x18 }
...
